; ModuleID = '31/572.c'
source_filename = "31/572.c"
target datalayout = "e-m:e-p270:32:32-p271:32:32-p272:64:64-i64:64-f80:128-n8:16:32:64-S128"
target triple = "x86_64-pc-linux-gnu"

%struct.student = type { %struct.student*, [50 x i8], [50 x i8], i8, i32, [50 x i8], [50 x i8], %struct.student* }

@a = dso_local global [4 x i8] c"end\00", align 1
@.str = private unnamed_addr constant [23 x i8] c"Memory request failed!\00", align 1
@.str.1 = private unnamed_addr constant [3 x i8] c"%s\00", align 1
@.str.2 = private unnamed_addr constant [15 x i8] c"%s %c %d %s %s\00", align 1
@.str.3 = private unnamed_addr constant [19 x i8] c"%s %s %c %d %s %s\0A\00", align 1

; Function Attrs: noinline nounwind uwtable
define dso_local %struct.student* @Appendnewnode() #0 {
  %1 = alloca %struct.student*, align 8
  %2 = alloca %struct.student*, align 8
  %3 = alloca %struct.student*, align 8
  %4 = alloca %struct.student*, align 8
  %5 = alloca i32, align 4
  store %struct.student* null, %struct.student** %1, align 8
  store i32 0, i32* %5, align 4
  br label %6

6:                                                ; preds = %72, %0
  %7 = call noalias i8* @malloc(i64 224) #5
  %8 = bitcast i8* %7 to %struct.student*
  store %struct.student* %8, %struct.student** %2, align 8
  %9 = load %struct.student*, %struct.student** %2, align 8
  %10 = icmp eq %struct.student* %9, null
  br i1 %10, label %11, label %13

11:                                               ; preds = %6
  %12 = call i32 (i8*, ...) @printf(i8* getelementptr inbounds ([23 x i8], [23 x i8]* @.str, i64 0, i64 0))
  call void @exit(i32 -1) #6
  unreachable

13:                                               ; preds = %6
  %14 = load %struct.student*, %struct.student** %2, align 8
  %15 = getelementptr inbounds %struct.student, %struct.student* %14, i32 0, i32 1
  %16 = getelementptr inbounds [50 x i8], [50 x i8]* %15, i64 0, i64 0
  %17 = call i32 (i8*, ...) @__isoc99_scanf(i8* getelementptr inbounds ([3 x i8], [3 x i8]* @.str.1, i64 0, i64 0), i8* %16)
  %18 = load %struct.student*, %struct.student** %2, align 8
  %19 = getelementptr inbounds %struct.student, %struct.student* %18, i32 0, i32 1
  %20 = getelementptr inbounds [50 x i8], [50 x i8]* %19, i64 0, i64 0
  %21 = call i32 @strcmp(i8* %20, i8* getelementptr inbounds ([4 x i8], [4 x i8]* @a, i64 0, i64 0)) #7
  %22 = icmp ne i32 %21, 0
  br i1 %22, label %23, label %37

23:                                               ; preds = %13
  %24 = load %struct.student*, %struct.student** %2, align 8
  %25 = getelementptr inbounds %struct.student, %struct.student* %24, i32 0, i32 2
  %26 = getelementptr inbounds [50 x i8], [50 x i8]* %25, i64 0, i64 0
  %27 = load %struct.student*, %struct.student** %2, align 8
  %28 = getelementptr inbounds %struct.student, %struct.student* %27, i32 0, i32 3
  %29 = load %struct.student*, %struct.student** %2, align 8
  %30 = getelementptr inbounds %struct.student, %struct.student* %29, i32 0, i32 4
  %31 = load %struct.student*, %struct.student** %2, align 8
  %32 = getelementptr inbounds %struct.student, %struct.student* %31, i32 0, i32 5
  %33 = load %struct.student*, %struct.student** %2, align 8
  %34 = getelementptr inbounds %struct.student, %struct.student* %33, i32 0, i32 6
  %35 = getelementptr inbounds [50 x i8], [50 x i8]* %34, i64 0, i64 0
  %36 = call i32 (i8*, ...) @__isoc99_scanf(i8* getelementptr inbounds ([15 x i8], [15 x i8]* @.str.2, i64 0, i64 0), i8* %26, i8* %28, i32* %30, [50 x i8]* %32, i8* %35)
  br label %37

37:                                               ; preds = %23, %13
  %38 = load i32, i32* %5, align 4
  %39 = icmp eq i32 %38, 0
  br i1 %39, label %40, label %56

40:                                               ; preds = %37
  %41 = load %struct.student*, %struct.student** %2, align 8
  store %struct.student* %41, %struct.student** %1, align 8
  %42 = load %struct.student*, %struct.student** %1, align 8
  store %struct.student* %42, %struct.student** %3, align 8
  %43 = load %struct.student*, %struct.student** %2, align 8
  %44 = getelementptr inbounds %struct.student, %struct.student* %43, i32 0, i32 0
  store %struct.student* null, %struct.student** %44, align 8
  %45 = load %struct.student*, %struct.student** %2, align 8
  %46 = getelementptr inbounds %struct.student, %struct.student* %45, i32 0, i32 1
  %47 = getelementptr inbounds [50 x i8], [50 x i8]* %46, i64 0, i64 0
  %48 = call i32 @strcmp(i8* %47, i8* getelementptr inbounds ([4 x i8], [4 x i8]* @a, i64 0, i64 0)) #7
  %49 = icmp ne i32 %48, 0
  br i1 %49, label %50, label %53

50:                                               ; preds = %40
  %51 = load %struct.student*, %struct.student** %2, align 8
  %52 = getelementptr inbounds %struct.student, %struct.student* %51, i32 0, i32 7
  store %struct.student* null, %struct.student** %52, align 8
  br label %53

53:                                               ; preds = %50, %40
  %54 = load i32, i32* %5, align 4
  %55 = add nsw i32 %54, 1
  store i32 %55, i32* %5, align 4
  br label %71

56:                                               ; preds = %37
  %57 = load %struct.student*, %struct.student** %2, align 8
  %58 = load %struct.student*, %struct.student** %3, align 8
  %59 = getelementptr inbounds %struct.student, %struct.student* %58, i32 0, i32 7
  store %struct.student* %57, %struct.student** %59, align 8
  %60 = load %struct.student*, %struct.student** %3, align 8
  %61 = load %struct.student*, %struct.student** %2, align 8
  %62 = getelementptr inbounds %struct.student, %struct.student* %61, i32 0, i32 0
  store %struct.student* %60, %struct.student** %62, align 8
  %63 = load %struct.student*, %struct.student** %2, align 8
  %64 = getelementptr inbounds %struct.student, %struct.student* %63, i32 0, i32 1
  %65 = getelementptr inbounds [50 x i8], [50 x i8]* %64, i64 0, i64 0
  %66 = call i32 @strcmp(i8* %65, i8* getelementptr inbounds ([4 x i8], [4 x i8]* @a, i64 0, i64 0)) #7
  %67 = icmp ne i32 %66, 0
  br i1 %67, label %68, label %70

68:                                               ; preds = %56
  %69 = load %struct.student*, %struct.student** %2, align 8
  store %struct.student* %69, %struct.student** %3, align 8
  br label %70

70:                                               ; preds = %68, %56
  br label %71

71:                                               ; preds = %70, %53
  br label %72

72:                                               ; preds = %71
  %73 = load %struct.student*, %struct.student** %2, align 8
  %74 = getelementptr inbounds %struct.student, %struct.student* %73, i32 0, i32 1
  %75 = getelementptr inbounds [50 x i8], [50 x i8]* %74, i64 0, i64 0
  %76 = call i32 @strcmp(i8* %75, i8* getelementptr inbounds ([4 x i8], [4 x i8]* @a, i64 0, i64 0)) #7
  %77 = icmp ne i32 %76, 0
  br i1 %77, label %6, label %78

78:                                               ; preds = %72
  %79 = load %struct.student*, %struct.student** %3, align 8
  store %struct.student* %79, %struct.student** %4, align 8
  %80 = load %struct.student*, %struct.student** %3, align 8
  %81 = getelementptr inbounds %struct.student, %struct.student* %80, i32 0, i32 7
  store %struct.student* null, %struct.student** %81, align 8
  %82 = load %struct.student*, %struct.student** %4, align 8
  ret %struct.student* %82
}

; Function Attrs: nounwind
declare dso_local noalias i8* @malloc(i64) #1

declare dso_local i32 @printf(i8*, ...) #2

; Function Attrs: noreturn nounwind
declare dso_local void @exit(i32) #3

declare dso_local i32 @__isoc99_scanf(i8*, ...) #2

; Function Attrs: nounwind readonly
declare dso_local i32 @strcmp(i8*, i8*) #4

; Function Attrs: noinline nounwind uwtable
define dso_local void @main() #0 {
  %1 = alloca %struct.student*, align 8
  %2 = alloca %struct.student*, align 8
  %3 = call %struct.student* @Appendnewnode()
  store %struct.student* %3, %struct.student** %1, align 8
  %4 = load %struct.student*, %struct.student** %1, align 8
  store %struct.student* %4, %struct.student** %2, align 8
  br label %5

5:                                                ; preds = %31, %0
  %6 = load %struct.student*, %struct.student** %2, align 8
  %7 = getelementptr inbounds %struct.student, %struct.student* %6, i32 0, i32 0
  %8 = load %struct.student*, %struct.student** %7, align 8
  %9 = icmp ne %struct.student* %8, null
  br i1 %9, label %10, label %35

10:                                               ; preds = %5
  %11 = load %struct.student*, %struct.student** %2, align 8
  %12 = getelementptr inbounds %struct.student, %struct.student* %11, i32 0, i32 1
  %13 = getelementptr inbounds [50 x i8], [50 x i8]* %12, i64 0, i64 0
  %14 = load %struct.student*, %struct.student** %2, align 8
  %15 = getelementptr inbounds %struct.student, %struct.student* %14, i32 0, i32 2
  %16 = getelementptr inbounds [50 x i8], [50 x i8]* %15, i64 0, i64 0
  %17 = load %struct.student*, %struct.student** %2, align 8
  %18 = getelementptr inbounds %struct.student, %struct.student* %17, i32 0, i32 3
  %19 = load i8, i8* %18, align 4
  %20 = sext i8 %19 to i32
  %21 = load %struct.student*, %struct.student** %2, align 8
  %22 = getelementptr inbounds %struct.student, %struct.student* %21, i32 0, i32 4
  %23 = load i32, i32* %22, align 8
  %24 = load %struct.student*, %struct.student** %2, align 8
  %25 = getelementptr inbounds %struct.student, %struct.student* %24, i32 0, i32 5
  %26 = getelementptr inbounds [50 x i8], [50 x i8]* %25, i64 0, i64 0
  %27 = load %struct.student*, %struct.student** %2, align 8
  %28 = getelementptr inbounds %struct.student, %struct.student* %27, i32 0, i32 6
  %29 = getelementptr inbounds [50 x i8], [50 x i8]* %28, i64 0, i64 0
  %30 = call i32 (i8*, ...) @printf(i8* getelementptr inbounds ([19 x i8], [19 x i8]* @.str.3, i64 0, i64 0), i8* %13, i8* %16, i32 %20, i32 %23, i8* %26, i8* %29)
  br label %31

31:                                               ; preds = %10
  %32 = load %struct.student*, %struct.student** %2, align 8
  %33 = getelementptr inbounds %struct.student, %struct.student* %32, i32 0, i32 0
  %34 = load %struct.student*, %struct.student** %33, align 8
  store %struct.student* %34, %struct.student** %2, align 8
  br label %5

35:                                               ; preds = %5
  %36 = load %struct.student*, %struct.student** %2, align 8
  %37 = getelementptr inbounds %struct.student, %struct.student* %36, i32 0, i32 1
  %38 = getelementptr inbounds [50 x i8], [50 x i8]* %37, i64 0, i64 0
  %39 = load %struct.student*, %struct.student** %2, align 8
  %40 = getelementptr inbounds %struct.student, %struct.student* %39, i32 0, i32 2
  %41 = getelementptr inbounds [50 x i8], [50 x i8]* %40, i64 0, i64 0
  %42 = load %struct.student*, %struct.student** %2, align 8
  %43 = getelementptr inbounds %struct.student, %struct.student* %42, i32 0, i32 3
  %44 = load i8, i8* %43, align 4
  %45 = sext i8 %44 to i32
  %46 = load %struct.student*, %struct.student** %2, align 8
  %47 = getelementptr inbounds %struct.student, %struct.student* %46, i32 0, i32 4
  %48 = load i32, i32* %47, align 8
  %49 = load %struct.student*, %struct.student** %2, align 8
  %50 = getelementptr inbounds %struct.student, %struct.student* %49, i32 0, i32 5
  %51 = getelementptr inbounds [50 x i8], [50 x i8]* %50, i64 0, i64 0
  %52 = load %struct.student*, %struct.student** %2, align 8
  %53 = getelementptr inbounds %struct.student, %struct.student* %52, i32 0, i32 6
  %54 = getelementptr inbounds [50 x i8], [50 x i8]* %53, i64 0, i64 0
  %55 = call i32 (i8*, ...) @printf(i8* getelementptr inbounds ([19 x i8], [19 x i8]* @.str.3, i64 0, i64 0), i8* %38, i8* %41, i32 %45, i32 %48, i8* %51, i8* %54)
  ret void
}


!llvm.module.flags = !{!0}
!llvm.ident = !{!1}

!0 = !{i32 1, !"wchar_size", i32 4}
!1 = !{!"clang version 10.0.0-4ubuntu1 "}
